; Function Attrs: mustprogress uwtable
define void @_ZN4base10GetHomeDirEv(ptr dead_on_unwind noalias writable sret(%"class.base::FilePath") align 8 %0) local_unnamed_addr #0 personality ptr @__gxx_personality_v0 {
  %2 = alloca %"class.base::FilePath", align 8
  %3 = tail call ptr @getenv(ptr noundef nonnull @.str.7) #24
  %.not = icmp eq ptr %3, null
  br i1 %.not, label %7, label %4

4:                                                ; preds = %1
  %5 = load i8, ptr %3, align 1, !tbaa !25
  %.not4 = icmp eq i8 %5, 0
  br i1 %.not4, label %7, label %_ZN4base16BasicStringPieceINSt7__cxx1112basic_stringIcSt11char_traitsIcESaIcEEEEC2EPKc.exit

_ZN4base16BasicStringPieceINSt7__cxx1112basic_stringIcSt11char_traitsIcESaIcEEEEC2EPKc.exit: ; preds = %4
  %6 = tail call noundef i64 @strlen(ptr noundef nonnull dereferenceable(1) %3) #24
  tail call void @_ZN4base8FilePathC1ENS_16BasicStringPieceINSt7__cxx1112basic_stringIcSt11char_traitsIcESaIcEEEEE(ptr noundef nonnull align 8 dereferenceable(32) %0, ptr nonnull %3, i64 %6)
  br label %13

7:                                                ; preds = %4, %1
  call void @llvm.lifetime.start.p0(i64 32, ptr nonnull %2) #24
  call void @_ZN4base8FilePathC1Ev(ptr noundef nonnull align 8 dereferenceable(32) %2)
  %8 = invoke noundef zeroext i1 @_ZN4base10GetTempDirEPNS_8FilePathE(ptr noundef nonnull %2)
          to label %9 unwind label %10

9:                                                ; preds = %7
  invoke void @_ZN4base8FilePathC1ERKS0_(ptr noundef nonnull align 8 dereferenceable(32) %0, ptr noundef nonnull align 8 dereferenceable(32) %2)
          to label %12 unwind label %10

10:                                               ; preds = %9, %7
  %11 = landingpad { ptr, i32 }
          cleanup
  call void @_ZN4base8FilePathD1Ev(ptr noundef nonnull align 8 dereferenceable(32) %2) #24
  call void @llvm.lifetime.end.p0(i64 32, ptr nonnull %2) #24
  resume { ptr, i32 } %11

12:                                               ; preds = %9
  call void @_ZN4base8FilePathD1Ev(ptr noundef nonnull align 8 dereferenceable(32) %2) #24
  call void @llvm.lifetime.end.p0(i64 32, ptr nonnull %2) #24
  br label %13

13:                                               ; preds = %12, %_ZN4base16BasicStringPieceINSt7__cxx1112basic_stringIcSt11char_traitsIcESaIcEEEEC2EPKc.exit
  ret void
}